; Function Attrs: nounwind uwtable
define ptr @l___private_Lean_Meta_Tactic_Grind_Canon_0__Lean_Meta_Grind_Canon_isDefEqBounded(ptr noundef %0, ptr noundef %1, ptr noundef %2, ptr noundef %3, ptr noundef %4, ptr noundef %5, ptr noundef %6, ptr noundef %7, ptr noundef %8, ptr noundef %9, ptr noundef %10, ptr noundef %11) local_unnamed_addr #1 {
  tail call void @lean_inc_heartbeat() #9
  %13 = tail call noalias ptr @mi_malloc_small(i64 noundef 48) #9
  %14 = icmp eq ptr %13, null
  br i1 %14, label %15, label %lean_alloc_closure.exit

15:                                               ; preds = %12
  tail call void @lean_internal_panic_out_of_memory() #10
  unreachable

lean_alloc_closure.exit:                          ; preds = %12
  %16 = getelementptr inbounds nuw i8, ptr %13, i64 4
  store i32 1, ptr %13, align 4, !tbaa !4
  store i32 -184549328, ptr %16, align 4
  %17 = getelementptr inbounds nuw i8, ptr %13, i64 8
  store ptr @l___private_Lean_Meta_Tactic_Grind_Canon_0__Lean_Meta_Grind_Canon_isDefEqBounded___lambda__3, ptr %17, align 8, !tbaa !9
  %18 = getelementptr inbounds nuw i8, ptr %13, i64 16
  store i16 13, ptr %18, align 8, !tbaa !15
  %19 = getelementptr inbounds nuw i8, ptr %13, i64 18
  store i16 3, ptr %19, align 2, !tbaa !15
  %20 = getelementptr inbounds nuw i8, ptr %13, i64 24
  store ptr %0, ptr %20, align 8, !tbaa !9
  %21 = getelementptr inbounds nuw i8, ptr %13, i64 32
  store ptr %1, ptr %21, align 8, !tbaa !9
  %22 = getelementptr inbounds nuw i8, ptr %13, i64 40
  store ptr %2, ptr %22, align 8, !tbaa !9
  %23 = load ptr, ptr @l___private_Lean_Meta_Tactic_Grind_Canon_0__Lean_Meta_Grind_Canon_isDefEqBounded___closed__2, align 8, !tbaa !9
  tail call void @lean_inc_heartbeat() #9
  %24 = tail call noalias ptr @mi_malloc_small(i64 noundef 40) #9
  %25 = icmp eq ptr %24, null
  br i1 %25, label %26, label %lean_alloc_closure.exit21

26:                                               ; preds = %lean_alloc_closure.exit
  tail call void @lean_internal_panic_out_of_memory() #10
  unreachable

lean_alloc_closure.exit21:                        ; preds = %lean_alloc_closure.exit
  %27 = getelementptr inbounds nuw i8, ptr %24, i64 4
  store i32 1, ptr %24, align 4, !tbaa !4
  store i32 -184549336, ptr %27, align 4
  %28 = getelementptr inbounds nuw i8, ptr %24, i64 8
  store ptr @l_ReaderT_bind___at___private_Lean_Meta_Tactic_Grind_Canon_0__Lean_Meta_Grind_Canon_isDefEqBounded___spec__1___rarg, ptr %28, align 8, !tbaa !9
  %29 = getelementptr inbounds nuw i8, ptr %24, i64 16
  store i16 11, ptr %29, align 8, !tbaa !15
  %30 = getelementptr inbounds nuw i8, ptr %24, i64 18
  store i16 2, ptr %30, align 2, !tbaa !15
  %31 = getelementptr inbounds nuw i8, ptr %24, i64 24
  store ptr %23, ptr %31, align 8, !tbaa !9
  %32 = getelementptr inbounds nuw i8, ptr %24, i64 32
  store ptr %13, ptr %32, align 8, !tbaa !9
  %33 = tail call ptr @l_Lean_Core_withCurrHeartbeats___at___private_Lean_Meta_Tactic_Grind_Canon_0__Lean_Meta_Grind_Canon_isDefEqBounded___spec__2(ptr noundef nonnull %24, ptr noundef %3, ptr noundef %4, ptr noundef %5, ptr noundef %6, ptr noundef %7, ptr noundef %8, ptr noundef %9, ptr noundef %10, ptr noundef %11)
  ret ptr %33
}